; Function Attrs: mustprogress uwtable
define noundef i64 @_ZNK8facebook5velox6memory14MemoryPoolImpl8capacityEv(ptr noundef nonnull align 8 dereferenceable(480) %this) unnamed_addr #0 align 2 personality ptr @__gxx_personality_v0 {
entry:
  %parent_ = getelementptr inbounds i8, ptr %this, i64 64
  %0 = load ptr, ptr %parent_, align 8
  %cmp.i.i.not = icmp eq ptr %0, null
  br i1 %cmp.i.i.not, label %if.end, label %if.then

if.then:                                          ; preds = %entry
  %vtable = load ptr, ptr %0, align 8
  %vfn = getelementptr inbounds i8, ptr %vtable, i64 216
  %1 = load ptr, ptr %vfn, align 8
  %call4 = tail call noundef i64 %1(ptr noundef nonnull align 8 dereferenceable(168) %0)
  br label %return

if.end:                                           ; preds = %entry
  %mutex_ = getelementptr inbounds i8, ptr %this, i64 248
  %call1.i.i.i = tail call noundef i32 @pthread_mutex_lock(ptr noundef nonnull %mutex_) #26
  %tobool.not.i.i = icmp eq i32 %call1.i.i.i, 0
  br i1 %tobool.not.i.i, label %_ZNSt10lock_guardISt5mutexEC2ERS0_.exit, label %if.then.i.i

if.then.i.i:                                      ; preds = %if.end
  tail call void @_ZSt20__throw_system_errori(i32 noundef %call1.i.i.i) #29
  unreachable

_ZNSt10lock_guardISt5mutexEC2ERS0_.exit:          ; preds = %if.end
  %capacity_ = getelementptr inbounds i8, ptr %this, i64 296
  %2 = load i64, ptr %capacity_, align 8
  %call1.i.i.i1 = tail call noundef i32 @pthread_mutex_unlock(ptr noundef nonnull %mutex_) #26
  br label %return

return:                                           ; preds = %_ZNSt10lock_guardISt5mutexEC2ERS0_.exit, %if.then
  %retval.0 = phi i64 [ %call4, %if.then ], [ %2, %_ZNSt10lock_guardISt5mutexEC2ERS0_.exit ]
  ret i64 %retval.0
}